; ModuleID = 'source-C-CXX/46/4811.c'
source_filename = "source-C-CXX/46/4811.c"
target datalayout = "e-m:e-p270:32:32-p271:32:32-p272:64:64-i64:64-f80:128-n8:16:32:64-S128"
target triple = "x86_64-pc-linux-gnu"

@.str = private unnamed_addr constant [3 x i8] c"%d\00", align 1
@.str.1 = private unnamed_addr constant [4 x i8] c" %d\00", align 1

; Function Attrs: nofree nounwind sspstrong uwtable
define dso_local i32 @main() local_unnamed_addr #0 {
  %1 = alloca i32, align 4
  %2 = alloca [100 x i32], align 16
  %3 = bitcast i32* %1 to i8*
  call void @llvm.lifetime.start.p0i8(i64 4, i8* nonnull %3) #3
  %4 = bitcast [100 x i32]* %2 to i8*
  call void @llvm.lifetime.start.p0i8(i64 400, i8* nonnull %4) #3
  %5 = call i32 (i8*, ...) @__isoc99_scanf(i8* getelementptr inbounds ([3 x i8], [3 x i8]* @.str, i64 0, i64 0), i32* nonnull %1)
  %6 = load i32, i32* %1, align 4, !tbaa !5
  %7 = icmp sgt i32 %6, 0
  br i1 %7, label %17, label %61

8:                                                ; preds = %17
  %9 = icmp sgt i32 %22, 1
  br i1 %9, label %10, label %61

10:                                               ; preds = %8
  %11 = lshr i32 %22, 1
  %12 = zext i32 %11 to i64
  %13 = and i64 %12, 1
  %14 = icmp eq i32 %11, 1
  br i1 %14, label %50, label %15

15:                                               ; preds = %10
  %16 = and i64 %12, 2147483646
  br label %25

17:                                               ; preds = %0, %17
  %18 = phi i64 [ %21, %17 ], [ 0, %0 ]
  %19 = getelementptr inbounds [100 x i32], [100 x i32]* %2, i64 0, i64 %18
  %20 = call i32 (i8*, ...) @__isoc99_scanf(i8* getelementptr inbounds ([3 x i8], [3 x i8]* @.str, i64 0, i64 0), i32* nonnull %19)
  %21 = add nuw nsw i64 %18, 1
  %22 = load i32, i32* %1, align 4, !tbaa !5
  %23 = sext i32 %22 to i64
  %24 = icmp slt i64 %21, %23
  br i1 %24, label %17, label %8, !llvm.loop !9

25:                                               ; preds = %25, %15
  %26 = phi i64 [ 0, %15 ], [ %44, %25 ]
  %27 = phi i32 [ 0, %15 ], [ %45, %25 ]
  %28 = phi i64 [ %16, %15 ], [ %46, %25 ]
  %29 = xor i32 %27, -1
  %30 = add i32 %22, %29
  %31 = getelementptr inbounds [100 x i32], [100 x i32]* %2, i64 0, i64 %26
  %32 = load i32, i32* %31, align 8, !tbaa !5
  %33 = sext i32 %30 to i64
  %34 = getelementptr inbounds [100 x i32], [100 x i32]* %2, i64 0, i64 %33
  %35 = load i32, i32* %34, align 4, !tbaa !5
  store i32 %35, i32* %31, align 8, !tbaa !5
  store i32 %32, i32* %34, align 4, !tbaa !5
  %36 = or i64 %26, 1
  %37 = sub nuw nsw i32 -2, %27
  %38 = add i32 %22, %37
  %39 = getelementptr inbounds [100 x i32], [100 x i32]* %2, i64 0, i64 %36
  %40 = load i32, i32* %39, align 4, !tbaa !5
  %41 = sext i32 %38 to i64
  %42 = getelementptr inbounds [100 x i32], [100 x i32]* %2, i64 0, i64 %41
  %43 = load i32, i32* %42, align 4, !tbaa !5
  store i32 %43, i32* %39, align 4, !tbaa !5
  store i32 %40, i32* %42, align 4, !tbaa !5
  %44 = add nuw nsw i64 %26, 2
  %45 = add nuw nsw i32 %27, 2
  %46 = add i64 %28, -2
  %47 = icmp eq i64 %46, 0
  br i1 %47, label %48, label %25, !llvm.loop !11

48:                                               ; preds = %25
  %49 = sub nuw i32 -3, %27
  br label %50

50:                                               ; preds = %48, %10
  %51 = phi i64 [ 0, %10 ], [ %44, %48 ]
  %52 = phi i32 [ -1, %10 ], [ %49, %48 ]
  %53 = icmp eq i64 %13, 0
  br i1 %53, label %61, label %54

54:                                               ; preds = %50
  %55 = add i32 %22, %52
  %56 = getelementptr inbounds [100 x i32], [100 x i32]* %2, i64 0, i64 %51
  %57 = load i32, i32* %56, align 4, !tbaa !5
  %58 = sext i32 %55 to i64
  %59 = getelementptr inbounds [100 x i32], [100 x i32]* %2, i64 0, i64 %58
  %60 = load i32, i32* %59, align 4, !tbaa !5
  store i32 %60, i32* %56, align 4, !tbaa !5
  store i32 %57, i32* %59, align 4, !tbaa !5
  br label %61

61:                                               ; preds = %54, %50, %0, %8
  %62 = getelementptr inbounds [100 x i32], [100 x i32]* %2, i64 0, i64 0
  %63 = load i32, i32* %62, align 16, !tbaa !5
  %64 = call i32 (i8*, ...) @printf(i8* nonnull dereferenceable(1) getelementptr inbounds ([3 x i8], [3 x i8]* @.str, i64 0, i64 0), i32 %63)
  %65 = load i32, i32* %1, align 4, !tbaa !5
  %66 = icmp sgt i32 %65, 1
  br i1 %66, label %67, label %76

67:                                               ; preds = %61, %67
  %68 = phi i64 [ %72, %67 ], [ 1, %61 ]
  %69 = getelementptr inbounds [100 x i32], [100 x i32]* %2, i64 0, i64 %68
  %70 = load i32, i32* %69, align 4, !tbaa !5
  %71 = call i32 (i8*, ...) @printf(i8* nonnull dereferenceable(1) getelementptr inbounds ([4 x i8], [4 x i8]* @.str.1, i64 0, i64 0), i32 %70)
  %72 = add nuw nsw i64 %68, 1
  %73 = load i32, i32* %1, align 4, !tbaa !5
  %74 = sext i32 %73 to i64
  %75 = icmp slt i64 %72, %74
  br i1 %75, label %67, label %76, !llvm.loop !12

76:                                               ; preds = %67, %61
  call void @llvm.lifetime.end.p0i8(i64 400, i8* nonnull %4) #3
  call void @llvm.lifetime.end.p0i8(i64 4, i8* nonnull %3) #3
  ret i32 0
}

; Function Attrs: argmemonly mustprogress nofree nosync nounwind willreturn
declare void @llvm.lifetime.start.p0i8(i64 immarg, i8* nocapture) #1

; Function Attrs: nofree nounwind
declare noundef i32 @__isoc99_scanf(i8* nocapture noundef readonly, ...) local_unnamed_addr #2

; Function Attrs: nofree nounwind
declare noundef i32 @printf(i8* nocapture noundef readonly, ...) local_unnamed_addr #2

; Function Attrs: argmemonly mustprogress nofree nosync nounwind willreturn
declare void @llvm.lifetime.end.p0i8(i64 immarg, i8* nocapture) #1


!llvm.module.flags = !{!0, !1, !2, !3}
!llvm.ident = !{!4}

!0 = !{i32 1, !"wchar_size", i32 4}
!1 = !{i32 7, !"PIC Level", i32 2}
!2 = !{i32 7, !"PIE Level", i32 2}
!3 = !{i32 7, !"uwtable", i32 1}
!4 = !{!"clang version 13.0.0"}
!5 = !{!6, !6, i64 0}
!6 = !{!"int", !7, i64 0}
!7 = !{!"omnipotent char", !8, i64 0}
!8 = !{!"Simple C/C++ TBAA"}
!9 = distinct !{!9, !10}
!10 = !{!"llvm.loop.mustprogress"}
!11 = distinct !{!11, !10}
!12 = distinct !{!12, !10}
